target datalayout = "e-m:e-p270:32:32-p271:32:32-p272:64:64-i64:64-i128:128-f80:128-n8:16:32:64-S128"
target triple = "x86_64-pc-linux-gnu"

%struct.ExprState = type { i32, i8, i8, i64, ptr, ptr, ptr, ptr, ptr, i32, i32, ptr, ptr, ptr, ptr, ptr, ptr, ptr }
%struct.ExprEvalStep = type { i64, ptr, ptr, %union.anon }
%union.anon = type { %struct.anon.23 }
%struct.anon.23 = type { ptr, ptr, i32, i32, ptr, ptr }
%struct.anon.0 = type { i32, i32, i32 }
%struct.TupleTableSlot = type { i32, i16, i16, ptr, ptr, ptr, ptr, ptr, %struct.ItemPointerData, i32 }
%struct.ItemPointerData = type { %struct.BlockIdData, i16 }
%struct.BlockIdData = type { i16, i16 }
%struct.TupleTableSlotOps = type { i64, ptr, ptr, ptr, ptr, ptr, ptr, ptr, ptr, ptr, ptr, ptr, ptr }

@.str.1 = private unnamed_addr constant [17 x i8] c"execExprInterp.c\00", align 1
@.str.40 = private unnamed_addr constant [36 x i8] c"failed to fetch attribute from slot\00", align 1
@__func__.ExecEvalSysVar = private unnamed_addr constant [15 x i8] c"ExecEvalSysVar\00", align 1

; Function Attrs: inlinehint nounwind uwtable
define internal i64 @PointerGetDatum(ptr noundef %0) #2 {
  %2 = alloca ptr, align 8
  store ptr %0, ptr %2, align 8
  %3 = load ptr, ptr %2, align 8
  %4 = ptrtoint ptr %3 to i64
  ret i64 %4
}

; Function Attrs: inlinehint nounwind uwtable
define internal i64 @ObjectIdGetDatum(i32 noundef %0) #2 {
  %2 = alloca i32, align 4
  store i32 %0, ptr %2, align 4
  %3 = load i32, ptr %2, align 4
  %4 = zext i32 %3 to i64
  ret i64 %4
}

; Function Attrs: inlinehint nounwind uwtable
define internal i64 @slot_getsysattr(ptr noundef %0, i32 noundef %1, ptr noundef %2) #2 {
  %4 = alloca i64, align 8
  %5 = alloca ptr, align 8
  %6 = alloca i32, align 4
  %7 = alloca ptr, align 8
  store ptr %0, ptr %5, align 8
  store i32 %1, ptr %6, align 4
  store ptr %2, ptr %7, align 8
  %8 = load i32, ptr %6, align 4
  %9 = icmp eq i32 %8, -6
  br i1 %9, label %10, label %16

10:                                               ; preds = %3
  %11 = load ptr, ptr %7, align 8
  store i8 0, ptr %11, align 1
  %12 = load ptr, ptr %5, align 8
  %13 = getelementptr inbounds nuw %struct.TupleTableSlot, ptr %12, i32 0, i32 9
  %14 = load i32, ptr %13, align 8
  %15 = call i64 @ObjectIdGetDatum(i32 noundef %14)
  store i64 %15, ptr %4, align 8
  br label %35

16:                                               ; preds = %3
  %17 = load i32, ptr %6, align 4
  %18 = icmp eq i32 %17, -1
  br i1 %18, label %19, label %24

19:                                               ; preds = %16
  %20 = load ptr, ptr %7, align 8
  store i8 0, ptr %20, align 1
  %21 = load ptr, ptr %5, align 8
  %22 = getelementptr inbounds nuw %struct.TupleTableSlot, ptr %21, i32 0, i32 8
  %23 = call i64 @PointerGetDatum(ptr noundef %22)
  store i64 %23, ptr %4, align 8
  br label %35

24:                                               ; preds = %16
  br label %25

25:                                               ; preds = %24
  %26 = load ptr, ptr %5, align 8
  %27 = getelementptr inbounds nuw %struct.TupleTableSlot, ptr %26, i32 0, i32 3
  %28 = load ptr, ptr %27, align 8
  %29 = getelementptr inbounds nuw %struct.TupleTableSlotOps, ptr %28, i32 0, i32 5
  %30 = load ptr, ptr %29, align 8
  %31 = load ptr, ptr %5, align 8
  %32 = load i32, ptr %6, align 4
  %33 = load ptr, ptr %7, align 8
  %34 = call i64 %30(ptr noundef %31, i32 noundef %32, ptr noundef %33)
  store i64 %34, ptr %4, align 8
  br label %35

35:                                               ; preds = %25, %19, %10
  %36 = load i64, ptr %4, align 8
  ret i64 %36
}

; Function Attrs: nounwind uwtable
define dso_local void @ExecEvalSysVar(ptr noundef %0, ptr noundef %1, ptr noundef %2, ptr noundef %3) #0 {
  %5 = alloca ptr, align 8
  %6 = alloca ptr, align 8
  %7 = alloca ptr, align 8
  %8 = alloca ptr, align 8
  %9 = alloca i64, align 8
  %10 = alloca i32, align 4
  store ptr %0, ptr %5, align 8
  store ptr %1, ptr %6, align 8
  store ptr %2, ptr %7, align 8
  store ptr %3, ptr %8, align 8
  call void @llvm.lifetime.start.p0(i64 8, ptr %9) #11
  %11 = load ptr, ptr %6, align 8
  %12 = getelementptr inbounds nuw %struct.ExprEvalStep, ptr %11, i32 0, i32 3
  %13 = getelementptr inbounds nuw %struct.anon.0, ptr %12, i32 0, i32 2
  %14 = load i32, ptr %13, align 8
  %15 = icmp eq i32 %14, 1
  br i1 %15, label %16, label %23

16:                                               ; preds = %4
  %17 = load ptr, ptr %5, align 8
  %18 = getelementptr inbounds nuw %struct.ExprState, ptr %17, i32 0, i32 1
  %19 = load i8, ptr %18, align 4
  %20 = zext i8 %19 to i32
  %21 = and i32 %20, 8
  %22 = icmp ne i32 %21, 0
  br i1 %22, label %36, label %23

23:                                               ; preds = %16, %4
  %24 = load ptr, ptr %6, align 8
  %25 = getelementptr inbounds nuw %struct.ExprEvalStep, ptr %24, i32 0, i32 3
  %26 = getelementptr inbounds nuw %struct.anon.0, ptr %25, i32 0, i32 2
  %27 = load i32, ptr %26, align 8
  %28 = icmp eq i32 %27, 2
  br i1 %28, label %29, label %43

29:                                               ; preds = %23
  %30 = load ptr, ptr %5, align 8
  %31 = getelementptr inbounds nuw %struct.ExprState, ptr %30, i32 0, i32 1
  %32 = load i8, ptr %31, align 4
  %33 = zext i8 %32 to i32
  %34 = and i32 %33, 16
  %35 = icmp ne i32 %34, 0
  br i1 %35, label %36, label %43

36:                                               ; preds = %29, %16
  %37 = load ptr, ptr %6, align 8
  %38 = getelementptr inbounds nuw %struct.ExprEvalStep, ptr %37, i32 0, i32 1
  %39 = load ptr, ptr %38, align 8
  store i64 0, ptr %39, align 8
  %40 = load ptr, ptr %6, align 8
  %41 = getelementptr inbounds nuw %struct.ExprEvalStep, ptr %40, i32 0, i32 2
  %42 = load ptr, ptr %41, align 8
  store i8 1, ptr %42, align 1
  store i32 1, ptr %10, align 4
  br label %80

43:                                               ; preds = %29, %23
  %44 = load ptr, ptr %8, align 8
  %45 = load ptr, ptr %6, align 8
  %46 = getelementptr inbounds nuw %struct.ExprEvalStep, ptr %45, i32 0, i32 3
  %47 = getelementptr inbounds nuw %struct.anon.0, ptr %46, i32 0, i32 0
  %48 = load i32, ptr %47, align 8
  %49 = load ptr, ptr %6, align 8
  %50 = getelementptr inbounds nuw %struct.ExprEvalStep, ptr %49, i32 0, i32 2
  %51 = load ptr, ptr %50, align 8
  %52 = call i64 @slot_getsysattr(ptr noundef %44, i32 noundef %48, ptr noundef %51)
  store i64 %52, ptr %9, align 8
  %53 = load i64, ptr %9, align 8
  %54 = load ptr, ptr %6, align 8
  %55 = getelementptr inbounds nuw %struct.ExprEvalStep, ptr %54, i32 0, i32 1
  %56 = load ptr, ptr %55, align 8
  store i64 %53, ptr %56, align 8
  %57 = load ptr, ptr %6, align 8
  %58 = getelementptr inbounds nuw %struct.ExprEvalStep, ptr %57, i32 0, i32 2
  %59 = load ptr, ptr %58, align 8
  %60 = load i8, ptr %59, align 1, !range !7, !noundef !8
  %61 = trunc i8 %60 to i1
  %62 = zext i1 %61 to i32
  %63 = icmp ne i32 %62, 0
  %64 = zext i1 %63 to i32
  %65 = sext i32 %64 to i64
  %66 = call i64 @llvm.expect.i64(i64 %65, i64 0)
  %67 = icmp ne i64 %66, 0
  br i1 %67, label %68, label %79

68:                                               ; preds = %43
  br label %69

69:                                               ; preds = %68
  br i1 true, label %70, label %72

70:                                               ; preds = %69
  %71 = call zeroext i1 @errstart_cold(i32 noundef 21, ptr noundef null) #12
  br i1 %71, label %74, label %76

72:                                               ; preds = %69
  %73 = call zeroext i1 @errstart(i32 noundef 21, ptr noundef null)
  br i1 %73, label %74, label %76

74:                                               ; preds = %72, %70
  %75 = call i32 (ptr, ...) @errmsg_internal(ptr noundef @.str.40)
  call void @errfinish(ptr noundef @.str.1, i32 noundef 5528, ptr noundef @__func__.ExecEvalSysVar)
  br label %76

76:                                               ; preds = %74, %72, %70
  unreachable

77:                                               ; No predecessors!
  br label %78

78:                                               ; preds = %77
  br label %79

79:                                               ; preds = %78, %43
  store i32 0, ptr %10, align 4
  br label %80

80:                                               ; preds = %79, %36
  call void @llvm.lifetime.end.p0(i64 8, ptr %9) #11
  %81 = load i32, ptr %10, align 4
  switch i32 %81, label %83 [
    i32 0, label %82
    i32 1, label %82
  ]

82:                                               ; preds = %80, %80
  ret void

83:                                               ; preds = %80
  unreachable
}