; Function Attrs: nounwind uwtable
define dso_local void @ExecEvalSysVar(ptr noundef readonly captures(none) %0, ptr noundef readonly captures(none) %1, ptr readnone captures(none) %2, ptr noundef %3) local_unnamed_addr #0 {
  %5 = getelementptr inbounds nuw i8, ptr %1, i64 24
  %6 = getelementptr inbounds nuw i8, ptr %1, i64 32
  %7 = load i32, ptr %6, align 8
  switch i32 %7, label %.thread [
    i32 1, label %8
    i32 2, label %12
  ]

8:                                                ; preds = %4
  %9 = getelementptr inbounds nuw i8, ptr %0, i64 4
  %10 = load i8, ptr %9, align 4
  %11 = and i8 %10, 8
  %.not = icmp eq i8 %11, 0
  br i1 %.not, label %.thread, label %16

12:                                               ; preds = %4
  %13 = getelementptr inbounds nuw i8, ptr %0, i64 4
  %14 = load i8, ptr %13, align 4
  %15 = and i8 %14, 16
  %.not11 = icmp eq i8 %15, 0
  br i1 %.not11, label %.thread, label %16

16:                                               ; preds = %12, %8
  %17 = getelementptr inbounds nuw i8, ptr %1, i64 8
  %18 = load ptr, ptr %17, align 8
  store i64 0, ptr %18, align 8
  %19 = getelementptr inbounds nuw i8, ptr %1, i64 16
  %20 = load ptr, ptr %19, align 8
  store i8 1, ptr %20, align 1
  br label %45

.thread:                                          ; preds = %4, %8, %12
  %21 = load i32, ptr %5, align 8
  %22 = getelementptr inbounds nuw i8, ptr %1, i64 16
  %23 = load ptr, ptr %22, align 8
  switch i32 %21, label %31 [
    i32 -6, label %24
    i32 -1, label %28
  ]

24:                                               ; preds = %.thread
  store i8 0, ptr %23, align 1
  %25 = getelementptr inbounds nuw i8, ptr %3, i64 56
  %26 = load i32, ptr %25, align 8
  %27 = zext i32 %26 to i64
  br label %slot_getsysattr.exit

28:                                               ; preds = %.thread
  store i8 0, ptr %23, align 1
  %29 = getelementptr inbounds nuw i8, ptr %3, i64 48
  %30 = ptrtoint ptr %29 to i64
  br label %slot_getsysattr.exit

31:                                               ; preds = %.thread
  %32 = getelementptr inbounds nuw i8, ptr %3, i64 8
  %33 = load ptr, ptr %32, align 8
  %34 = getelementptr inbounds nuw i8, ptr %33, i64 40
  %35 = load ptr, ptr %34, align 8
  %36 = tail call i64 %35(ptr noundef %3, i32 noundef %21, ptr noundef %23) #18
  br label %slot_getsysattr.exit

slot_getsysattr.exit:                             ; preds = %24, %28, %31
  %.0.i = phi i64 [ %27, %24 ], [ %30, %28 ], [ %36, %31 ]
  %37 = getelementptr inbounds nuw i8, ptr %1, i64 8
  %38 = load ptr, ptr %37, align 8
  store i64 %.0.i, ptr %38, align 8
  %39 = load ptr, ptr %22, align 8
  %40 = load i8, ptr %39, align 1, !range !8, !noundef !9
  %41 = trunc nuw i8 %40 to i1
  br i1 %41, label %42, label %45, !prof !11

42:                                               ; preds = %slot_getsysattr.exit
  %43 = tail call zeroext i1 @errstart_cold(i32 noundef 21, ptr noundef null) #19
  tail call void @llvm.assume(i1 %43)
  %44 = tail call i32 (ptr, ...) @errmsg_internal(ptr noundef nonnull @.str.40) #18
  tail call void @errfinish(ptr noundef nonnull @.str.1, i32 noundef 5528, ptr noundef nonnull @__func__.ExecEvalSysVar) #18
  unreachable

45:                                               ; preds = %slot_getsysattr.exit, %16
  ret void
}